; Function Attrs: nounwind uwtable
define noalias noundef nonnull ptr @l_liftExcept___at_Lean_Server_FileWorker_handleWaitForDiagnostics___spec__1(ptr noundef %0, ptr readnone captures(none) %1, ptr noundef %2) local_unnamed_addr #0 {
  %4 = ptrtoint ptr %0 to i64
  %5 = and i64 %4, 1
  %.not.i = icmp eq i64 %5, 0
  br i1 %.not.i, label %9, label %6

6:                                                ; preds = %3
  %7 = lshr i64 %4, 1
  %8 = trunc i64 %7 to i32
  br label %lean_obj_tag.exit

9:                                                ; preds = %3
  %10 = getelementptr i8, ptr %0, i64 4
  %.val.i = load i32, ptr %10, align 4
  %11 = lshr i32 %.val.i, 24
  br label %lean_obj_tag.exit

lean_obj_tag.exit:                                ; preds = %6, %9
  %.0.i = phi i32 [ %8, %6 ], [ %11, %9 ]
  %12 = icmp eq i32 %.0.i, 0
  %13 = getelementptr inbounds nuw i8, ptr %0, i64 8
  %14 = load ptr, ptr %13, align 8, !tbaa !10
  %15 = ptrtoint ptr %14 to i64
  %16 = and i64 %15, 1
  %.not23 = icmp eq i64 %16, 0
  br i1 %12, label %17, label %27

17:                                               ; preds = %lean_obj_tag.exit
  br i1 %.not23, label %18, label %lean_inc.exit16

18:                                               ; preds = %17
  %.val.i17 = load i32, ptr %14, align 4, !tbaa !4
  %19 = icmp sgt i32 %.val.i17, 0
  br i1 %19, label %20, label %22, !prof !9

20:                                               ; preds = %18
  %21 = add nuw i32 %.val.i17, 1
  store i32 %21, ptr %14, align 4, !tbaa !4
  br label %lean_inc.exit16

22:                                               ; preds = %18
  %.not.i18 = icmp eq i32 %.val.i17, 0
  br i1 %.not.i18, label %lean_inc.exit16, label %23

23:                                               ; preds = %22
  tail call void @lean_inc_ref_cold(ptr noundef nonnull %14) #8
  br label %lean_inc.exit16

lean_inc.exit16:                                  ; preds = %23, %22, %20, %17
  tail call void @lean_inc_heartbeat() #8
  %24 = tail call noalias ptr @mi_malloc_small(i64 noundef 24) #8
  %25 = icmp eq ptr %24, null
  br i1 %25, label %26, label %lean_alloc_ctor.exit

26:                                               ; preds = %lean_inc.exit16
  tail call void @lean_internal_panic_out_of_memory() #9
  unreachable

27:                                               ; preds = %lean_obj_tag.exit
  br i1 %.not23, label %28, label %lean_inc.exit

28:                                               ; preds = %27
  %.val.i19 = load i32, ptr %14, align 4, !tbaa !4
  %29 = icmp sgt i32 %.val.i19, 0
  br i1 %29, label %30, label %32, !prof !9

30:                                               ; preds = %28
  %31 = add nuw i32 %.val.i19, 1
  store i32 %31, ptr %14, align 4, !tbaa !4
  br label %lean_inc.exit

32:                                               ; preds = %28
  %.not.i20 = icmp eq i32 %.val.i19, 0
  br i1 %.not.i20, label %lean_inc.exit, label %33

33:                                               ; preds = %32
  tail call void @lean_inc_ref_cold(ptr noundef nonnull %14) #8
  br label %lean_inc.exit

lean_inc.exit:                                    ; preds = %33, %32, %30, %27
  tail call void @lean_inc_heartbeat() #8
  %34 = tail call noalias ptr @mi_malloc_small(i64 noundef 24) #8
  %35 = icmp eq ptr %34, null
  br i1 %35, label %36, label %lean_alloc_ctor.exit

36:                                               ; preds = %lean_inc.exit
  tail call void @lean_internal_panic_out_of_memory() #9
  unreachable

lean_alloc_ctor.exit:                             ; preds = %lean_inc.exit, %lean_inc.exit16
  %.sink28 = phi ptr [ %24, %lean_inc.exit16 ], [ %34, %lean_inc.exit ]
  %.sink = phi i32 [ 16908312, %lean_inc.exit16 ], [ 131096, %lean_inc.exit ]
  %37 = getelementptr inbounds nuw i8, ptr %.sink28, i64 4
  store i32 1, ptr %.sink28, align 4, !tbaa !4
  store i32 %.sink, ptr %37, align 4
  %38 = getelementptr inbounds nuw i8, ptr %.sink28, i64 8
  store ptr %14, ptr %38, align 8, !tbaa !10
  %39 = getelementptr inbounds nuw i8, ptr %.sink28, i64 16
  store ptr %2, ptr %39, align 8, !tbaa !10
  ret ptr %.sink28
}